target datalayout = "e-m:e-p270:32:32-p271:32:32-p272:64:64-i64:64-i128:128-f80:128-n8:16:32:64-S128"
target triple = "x86_64-pc-linux-gnu"

%struct.option = type { i32, i32, ptr, ptr, ptr, ptr, i32, ptr, i64, ptr, i64, ptr }

@.str.72 = private unnamed_addr constant [1 x i8] zeroinitializer, align 1
@.str.90 = private unnamed_addr constant [5 x i8] c"mbox\00", align 1
@.str.91 = private unnamed_addr constant [6 x i8] c"stgit\00", align 1
@.str.92 = private unnamed_addr constant [13 x i8] c"stgit-series\00", align 1
@.str.93 = private unnamed_addr constant [3 x i8] c"hg\00", align 1
@.str.94 = private unnamed_addr constant [7 x i8] c"mboxrd\00", align 1
@.str.95 = private unnamed_addr constant [29 x i8] c"invalid value for '%s': '%s'\00", align 1
@.str.96 = private unnamed_addr constant [15 x i8] c"--patch-format\00", align 1
@git_gettext_enabled = external global i32, align 4

; Function Attrs: inlinehint nounwind uwtable
define internal i32 @const_error() #5 {
  ret i32 -1
}

; Function Attrs: inlinehint nounwind uwtable
define internal ptr @_(ptr noundef %0) #5 {
  %2 = alloca ptr, align 8
  %3 = alloca ptr, align 8
  store ptr %0, ptr %3, align 8, !tbaa !11
  %4 = load ptr, ptr %3, align 8, !tbaa !11
  %5 = load i8, ptr %4, align 1, !tbaa !84
  %6 = icmp ne i8 %5, 0
  br i1 %6, label %8, label %7

7:                                                ; preds = %1
  store ptr @.str.72, ptr %2, align 8
  br label %16

8:                                                ; preds = %1
  %9 = load i32, ptr @git_gettext_enabled, align 4, !tbaa !4
  %10 = icmp ne i32 %9, 0
  br i1 %10, label %13, label %11

11:                                               ; preds = %8
  %12 = load ptr, ptr %3, align 8, !tbaa !11
  store ptr %12, ptr %2, align 8
  br label %16

13:                                               ; preds = %8
  %14 = load ptr, ptr %3, align 8, !tbaa !11
  %15 = call ptr @dcgettext(ptr noundef null, ptr noundef %14, i32 noundef 5) #14
  store ptr %15, ptr %2, align 8
  br label %16

16:                                               ; preds = %13, %11, %7
  %17 = load ptr, ptr %2, align 8
  ret ptr %17
}

; Function Attrs: nounwind uwtable
define internal i32 @parse_opt_patchformat(ptr noundef %0, ptr noundef %1, i32 noundef %2) #0 {
  %4 = alloca i32, align 4
  %5 = alloca ptr, align 8
  %6 = alloca ptr, align 8
  %7 = alloca i32, align 4
  %8 = alloca ptr, align 8
  %9 = alloca i32, align 4
  store ptr %0, ptr %5, align 8, !tbaa !42
  store ptr %1, ptr %6, align 8, !tbaa !11
  store i32 %2, ptr %7, align 4, !tbaa !4
  call void @llvm.lifetime.start.p0(i64 8, ptr %8) #14
  %10 = load ptr, ptr %5, align 8, !tbaa !42
  %11 = getelementptr inbounds nuw %struct.option, ptr %10, i32 0, i32 3
  %12 = load ptr, ptr %11, align 8, !tbaa !20
  store ptr %12, ptr %8, align 8, !tbaa !44
  %13 = load i32, ptr %7, align 4, !tbaa !4
  %14 = icmp ne i32 %13, 0
  br i1 %14, label %15, label %17

15:                                               ; preds = %3
  %16 = load ptr, ptr %8, align 8, !tbaa !44
  store i32 0, ptr %16, align 4, !tbaa !4
  br label %57

17:                                               ; preds = %3
  %18 = load ptr, ptr %6, align 8, !tbaa !11
  %19 = call i32 @strcmp(ptr noundef %18, ptr noundef @.str.90) #16
  %20 = icmp ne i32 %19, 0
  br i1 %20, label %23, label %21

21:                                               ; preds = %17
  %22 = load ptr, ptr %8, align 8, !tbaa !44
  store i32 1, ptr %22, align 4, !tbaa !4
  br label %56

23:                                               ; preds = %17
  %24 = load ptr, ptr %6, align 8, !tbaa !11
  %25 = call i32 @strcmp(ptr noundef %24, ptr noundef @.str.91) #16
  %26 = icmp ne i32 %25, 0
  br i1 %26, label %29, label %27

27:                                               ; preds = %23
  %28 = load ptr, ptr %8, align 8, !tbaa !44
  store i32 2, ptr %28, align 4, !tbaa !4
  br label %55

29:                                               ; preds = %23
  %30 = load ptr, ptr %6, align 8, !tbaa !11
  %31 = call i32 @strcmp(ptr noundef %30, ptr noundef @.str.92) #16
  %32 = icmp ne i32 %31, 0
  br i1 %32, label %35, label %33

33:                                               ; preds = %29
  %34 = load ptr, ptr %8, align 8, !tbaa !44
  store i32 3, ptr %34, align 4, !tbaa !4
  br label %54

35:                                               ; preds = %29
  %36 = load ptr, ptr %6, align 8, !tbaa !11
  %37 = call i32 @strcmp(ptr noundef %36, ptr noundef @.str.93) #16
  %38 = icmp ne i32 %37, 0
  br i1 %38, label %41, label %39

39:                                               ; preds = %35
  %40 = load ptr, ptr %8, align 8, !tbaa !44
  store i32 4, ptr %40, align 4, !tbaa !4
  br label %53

41:                                               ; preds = %35
  %42 = load ptr, ptr %6, align 8, !tbaa !11
  %43 = call i32 @strcmp(ptr noundef %42, ptr noundef @.str.94) #16
  %44 = icmp ne i32 %43, 0
  br i1 %44, label %47, label %45

45:                                               ; preds = %41
  %46 = load ptr, ptr %8, align 8, !tbaa !44
  store i32 5, ptr %46, align 4, !tbaa !4
  br label %52

47:                                               ; preds = %41
  %48 = call ptr @_(ptr noundef @.str.95)
  %49 = load ptr, ptr %6, align 8, !tbaa !11
  %50 = call i32 (ptr, ...) @error(ptr noundef %48, ptr noundef @.str.96, ptr noundef %49)
  %51 = call i32 @const_error()
  store i32 %51, ptr %4, align 4
  store i32 1, ptr %9, align 4
  br label %58

52:                                               ; preds = %45
  br label %53

53:                                               ; preds = %52, %39
  br label %54

54:                                               ; preds = %53, %33
  br label %55

55:                                               ; preds = %54, %27
  br label %56

56:                                               ; preds = %55, %21
  br label %57

57:                                               ; preds = %56, %15
  store i32 0, ptr %4, align 4
  store i32 1, ptr %9, align 4
  br label %58

58:                                               ; preds = %57, %47
  call void @llvm.lifetime.end.p0(i64 8, ptr %8) #14
  %59 = load i32, ptr %4, align 4
  ret i32 %59
}