; Function Attrs: nounwind uwtable
define internal range(i32 -1, 1) i32 @parse_opt_patchformat(ptr noundef readonly captures(none) %0, ptr noundef %1, i32 noundef %2) #0 {
  %4 = getelementptr inbounds nuw i8, ptr %0, i64 16
  %5 = load ptr, ptr %4, align 8, !tbaa !15
  %.not = icmp eq i32 %2, 0
  br i1 %.not, label %7, label %6

6:                                                ; preds = %3
  store i32 0, ptr %5, align 4, !tbaa !4
  br label %30

7:                                                ; preds = %3
  %8 = tail call i32 @strcmp(ptr noundef nonnull dereferenceable(1) %1, ptr noundef nonnull dereferenceable(5) @.str.90) #23
  %.not14 = icmp eq i32 %8, 0
  br i1 %.not14, label %9, label %10

9:                                                ; preds = %7
  store i32 1, ptr %5, align 4, !tbaa !4
  br label %30

10:                                               ; preds = %7
  %11 = tail call i32 @strcmp(ptr noundef nonnull dereferenceable(1) %1, ptr noundef nonnull dereferenceable(6) @.str.91) #23
  %.not15 = icmp eq i32 %11, 0
  br i1 %.not15, label %12, label %13

12:                                               ; preds = %10
  store i32 2, ptr %5, align 4, !tbaa !4
  br label %30

13:                                               ; preds = %10
  %14 = tail call i32 @strcmp(ptr noundef nonnull dereferenceable(1) %1, ptr noundef nonnull dereferenceable(13) @.str.92) #23
  %.not16 = icmp eq i32 %14, 0
  br i1 %.not16, label %15, label %sub_0

15:                                               ; preds = %13
  store i32 3, ptr %5, align 4, !tbaa !4
  br label %30

sub_0:                                            ; preds = %13
  %16 = load i8, ptr %1, align 1
  %.not19 = icmp eq i8 %16, 104
  br i1 %.not19, label %sub_1, label %.tail.thread

sub_1:                                            ; preds = %sub_0
  %17 = getelementptr inbounds nuw i8, ptr %1, i64 1
  %18 = load i8, ptr %17, align 1
  %.not20 = icmp eq i8 %18, 103
  br i1 %.not20, label %.tail, label %.tail.thread

.tail:                                            ; preds = %sub_1
  %19 = getelementptr inbounds nuw i8, ptr %1, i64 2
  %20 = load i8, ptr %19, align 1
  %21 = icmp eq i8 %20, 0
  br i1 %21, label %22, label %.tail.thread

22:                                               ; preds = %.tail
  store i32 4, ptr %5, align 4, !tbaa !4
  br label %30

.tail.thread:                                     ; preds = %sub_1, %sub_0, %.tail
  %23 = tail call i32 @strcmp(ptr noundef nonnull dereferenceable(1) %1, ptr noundef nonnull dereferenceable(7) @.str.94) #23
  %.not18 = icmp eq i32 %23, 0
  br i1 %.not18, label %24, label %25

24:                                               ; preds = %.tail.thread
  store i32 5, ptr %5, align 4, !tbaa !4
  br label %30

25:                                               ; preds = %.tail.thread
  %26 = load i32, ptr @git_gettext_enabled, align 4, !tbaa !4
  %.not4.i = icmp eq i32 %26, 0
  br i1 %.not4.i, label %_.exit, label %27

27:                                               ; preds = %25
  %28 = tail call ptr @dcgettext(ptr noundef null, ptr noundef nonnull @.str.95, i32 noundef 5) #21
  br label %_.exit

_.exit:                                           ; preds = %25, %27
  %.0.i = phi ptr [ %28, %27 ], [ @.str.95, %25 ]
  %29 = tail call i32 (ptr, ...) @error(ptr noundef %.0.i, ptr noundef nonnull @.str.96, ptr noundef nonnull %1) #21
  br label %30

30:                                               ; preds = %6, %12, %22, %24, %15, %9, %_.exit
  %.0 = phi i32 [ -1, %_.exit ], [ 0, %9 ], [ 0, %15 ], [ 0, %24 ], [ 0, %22 ], [ 0, %12 ], [ 0, %6 ]
  ret i32 %.0
}